
./build/riscv32-smode.elf:     file format elf32-littleriscv


Disassembly of section .text:

80000000 <_start>:
80000000:	00000117          	auipc	sp,0x0
80000004:	3c412103          	lw	sp,964(sp) # 800003c4 <_GLOBAL_OFFSET_TABLE_+0x8>
80000008:	2879                	jal	800000a6 <__run_main>

8000000a <l>:
8000000a:	a001                	j	8000000a <l>

8000000c <m_mode_call_handle>:
8000000c:	1141                	addi	sp,sp,-16
8000000e:	c422                	sw	s0,8(sp)
80000010:	c606                	sw	ra,12(sp)
80000012:	00000417          	auipc	s0,0x0
80000016:	16640413          	addi	s0,s0,358 # 80000178 <ecall+0x8>
8000001a:	04500513          	li	a0,69
8000001e:	2855                	jal	800000d2 <putchar>
80000020:	00144503          	lbu	a0,1(s0)
80000024:	0405                	addi	s0,s0,1
80000026:	fd65                	bnez	a0,8000001e <m_mode_call_handle+0x12>
80000028:	2219                	jal	8000012e <csrr_mepc>
8000002a:	0511                	addi	a0,a0,4
8000002c:	2a29                	jal	80000146 <csrw_mepc>
8000002e:	2a1d                	jal	80000164 <mret>
80000030:	a001                	j	80000030 <m_mode_call_handle+0x24>

80000032 <s_mode_entry>:
80000032:	1141                	addi	sp,sp,-16
80000034:	c422                	sw	s0,8(sp)
80000036:	c606                	sw	ra,12(sp)
80000038:	00000417          	auipc	s0,0x0
8000003c:	15040413          	addi	s0,s0,336 # 80000188 <ecall+0x18>
80000040:	04500513          	li	a0,69
80000044:	2079                	jal	800000d2 <putchar>
80000046:	00144503          	lbu	a0,1(s0)
8000004a:	0405                	addi	s0,s0,1
8000004c:	fd65                	bnez	a0,80000044 <s_mode_entry+0x12>
8000004e:	220d                	jal	80000170 <ecall>
80000050:	00000417          	auipc	s0,0x0
80000054:	14840413          	addi	s0,s0,328 # 80000198 <ecall+0x28>
80000058:	05200513          	li	a0,82
8000005c:	289d                	jal	800000d2 <putchar>
8000005e:	00144503          	lbu	a0,1(s0)
80000062:	0405                	addi	s0,s0,1
80000064:	fd65                	bnez	a0,8000005c <s_mode_entry+0x2a>
80000066:	a001                	j	80000066 <s_mode_entry+0x34>

80000068 <main>:
80000068:	1141                	addi	sp,sp,-16
8000006a:	c606                	sw	ra,12(sp)
8000006c:	285d                	jal	80000122 <csrr_mstatus>
8000006e:	7779                	lui	a4,0xffffe
80000070:	7ff70713          	addi	a4,a4,2047 # ffffe7ff <__heap_start+0x7fff57ff>
80000074:	6785                	lui	a5,0x1
80000076:	8d79                	and	a0,a0,a4
80000078:	80078793          	addi	a5,a5,-2048 # 800 <_entry_offset+0x800>
8000007c:	8d5d                	or	a0,a0,a5
8000007e:	20c9                	jal	80000140 <csrw_mstatus>
80000080:	00000517          	auipc	a0,0x0
80000084:	fb250513          	addi	a0,a0,-78 # 80000032 <s_mode_entry>
80000088:	287d                	jal	80000146 <csrw_mepc>
8000008a:	00000517          	auipc	a0,0x0
8000008e:	f8250513          	addi	a0,a0,-126 # 8000000c <m_mode_call_handle>
80000092:	286d                	jal	8000014c <csrw_mtvec>
80000094:	28c1                	jal	80000164 <mret>
80000096:	40b2                	lw	ra,12(sp)
80000098:	4501                	li	a0,0
8000009a:	0141                	addi	sp,sp,16
8000009c:	8082                	ret

8000009e <halt>:
8000009e:	1141                	addi	sp,sp,-16
800000a0:	c606                	sw	ra,12(sp)
800000a2:	28ad                	jal	8000011c <__halt>
800000a4:	a001                	j	800000a4 <halt+0x6>

800000a6 <__run_main>:
800000a6:	00000697          	auipc	a3,0x0
800000aa:	31a6a683          	lw	a3,794(a3) # 800003c0 <_GLOBAL_OFFSET_TABLE_+0x4>
800000ae:	1141                	addi	sp,sp,-16
800000b0:	080007b7          	lui	a5,0x8000
800000b4:	c606                	sw	ra,12(sp)
800000b6:	00000717          	auipc	a4,0x0
800000ba:	31a70713          	addi	a4,a4,794 # 800003d0 <heap>
800000be:	97b6                	add	a5,a5,a3
800000c0:	00000517          	auipc	a0,0x0
800000c4:	0ec50513          	addi	a0,a0,236 # 800001ac <ecall+0x3c>
800000c8:	c314                	sw	a3,0(a4)
800000ca:	c35c                	sw	a5,4(a4)
800000cc:	3f71                	jal	80000068 <main>
800000ce:	20b9                	jal	8000011c <__halt>
800000d0:	a001                	j	800000d0 <__run_main+0x2a>

800000d2 <putchar>:
800000d2:	1141                	addi	sp,sp,-16
800000d4:	0ff57513          	zext.b	a0,a0
800000d8:	c606                	sw	ra,12(sp)
800000da:	2029                	jal	800000e4 <__am_uart_tx>
800000dc:	40b2                	lw	ra,12(sp)
800000de:	4501                	li	a0,0
800000e0:	0141                	addi	sp,sp,16
800000e2:	8082                	ret

800000e4 <__am_uart_tx>:
800000e4:	10000737          	lui	a4,0x10000
800000e8:	0715                	addi	a4,a4,5 # 10000005 <_entry_offset+0x10000005>
800000ea:	00074783          	lbu	a5,0(a4)
800000ee:	0207f793          	andi	a5,a5,32
800000f2:	dfe5                	beqz	a5,800000ea <__am_uart_tx+0x6>
800000f4:	100007b7          	lui	a5,0x10000
800000f8:	00a78023          	sb	a0,0(a5) # 10000000 <_entry_offset+0x10000000>
800000fc:	8082                	ret

800000fe <__uart_rx>:
800000fe:	10000737          	lui	a4,0x10000
80000102:	00574783          	lbu	a5,5(a4) # 10000005 <_entry_offset+0x10000005>
80000106:	0ff00513          	li	a0,255
8000010a:	8b85                	andi	a5,a5,1
8000010c:	c799                	beqz	a5,8000011a <__uart_rx+0x1c>
8000010e:	100007b7          	lui	a5,0x10000
80000112:	0007c503          	lbu	a0,0(a5) # 10000000 <_entry_offset+0x10000000>
80000116:	0ff57513          	zext.b	a0,a0
8000011a:	8082                	ret

8000011c <__halt>:
8000011c:	852a                	mv	a0,a0
8000011e:	9002                	ebreak
80000120:	8082                	ret

80000122 <csrr_mstatus>:
80000122:	30002573          	csrr	a0,mstatus
80000126:	8082                	ret

80000128 <csrr_mcause>:
80000128:	34202573          	csrr	a0,mcause
8000012c:	8082                	ret

8000012e <csrr_mepc>:
8000012e:	34102573          	csrr	a0,mepc
80000132:	8082                	ret

80000134 <csrr_medeleg>:
80000134:	30202573          	csrr	a0,medeleg
80000138:	8082                	ret

8000013a <csrw_mcause>:
8000013a:	34251073          	csrw	mcause,a0
8000013e:	8082                	ret

80000140 <csrw_mstatus>:
80000140:	30051073          	csrw	mstatus,a0
80000144:	8082                	ret

80000146 <csrw_mepc>:
80000146:	34151073          	csrw	mepc,a0
8000014a:	8082                	ret

8000014c <csrw_mtvec>:
8000014c:	30551073          	csrw	mtvec,a0
80000150:	8082                	ret

80000152 <csrw_medeleg>:
80000152:	30251073          	csrw	medeleg,a0
80000156:	8082                	ret

80000158 <csrw_sepc>:
80000158:	14151073          	csrw	sepc,a0
8000015c:	8082                	ret

8000015e <csrw_stvec>:
8000015e:	10551073          	csrw	stvec,a0
80000162:	8082                	ret

80000164 <mret>:
80000164:	30200073          	mret
80000168:	8082                	ret

8000016a <sret>:
8000016a:	10200073          	sret
8000016e:	8082                	ret

80000170 <ecall>:
80000170:	00000073          	ecall
80000174:	8082                	ret
