
./build/riscv32-timer.elf:     file format elf32-littleriscv


Disassembly of section .text:

80000000 <_start>:
80000000:	00001117          	auipc	sp,0x1
80000004:	ce412103          	lw	sp,-796(sp) # 80000ce4 <_GLOBAL_OFFSET_TABLE_+0x14>
80000008:	20b5                	jal	80000074 <__run_main>
8000000a:	a001                	j	8000000a <_start+0xa>

8000000c <main>:
8000000c:	00001297          	auipc	t0,0x1
80000010:	cc82a283          	lw	t0,-824(t0) # 80000cd4 <_GLOBAL_OFFSET_TABLE_+0x4>
80000014:	30529073          	csrw	mtvec,t0
80000018:	02004337          	lui	t1,0x2004
8000001c:	3b9ad2b7          	lui	t0,0x3b9ad
80000020:	a0028293          	add	t0,t0,-1536 # 3b9aca00 <_entry_offset+0x3b9aca00>
80000024:	00532023          	sw	t0,0(t1) # 2004000 <_entry_offset+0x2004000>
80000028:	4281                	li	t0,0
8000002a:	00532223          	sw	t0,4(t1)
8000002e:	42a1                	li	t0,8
80000030:	3002a073          	csrs	mstatus,t0
80000034:	08000293          	li	t0,128
80000038:	3042a073          	csrs	mie,t0
8000003c:	a001                	j	8000003c <main+0x30>

8000003e <m_mode_handle>:
8000003e:	342022f3          	csrr	t0,mcause
80000042:	80000337          	lui	t1,0x80000
80000046:	031d                	add	t1,t1,7 # 80000007 <_start+0x7>
80000048:	00629a63          	bne	t0,t1,8000005c <.fail>
8000004c:	00001517          	auipc	a0,0x1
80000050:	c8c52503          	lw	a0,-884(a0) # 80000cd8 <_GLOBAL_OFFSET_TABLE_+0x8>
80000054:	1c3000ef          	jal	80000a16 <puts>
80000058:	30200073          	mret

8000005c <.fail>:
8000005c:	00001517          	auipc	a0,0x1
80000060:	c8052503          	lw	a0,-896(a0) # 80000cdc <_GLOBAL_OFFSET_TABLE_+0xc>
80000064:	1b3000ef          	jal	80000a16 <puts>
80000068:	4505                	li	a0,1
8000006a:	9002                	ebreak

8000006c <halt>:
8000006c:	1141                	add	sp,sp,-16
8000006e:	c606                	sw	ra,12(sp)
80000070:	2885                	jal	800000e0 <__halt>
80000072:	a001                	j	80000072 <halt+0x6>

80000074 <__run_main>:
80000074:	00001697          	auipc	a3,0x1
80000078:	c6c6a683          	lw	a3,-916(a3) # 80000ce0 <_GLOBAL_OFFSET_TABLE_+0x10>
8000007c:	1141                	add	sp,sp,-16
8000007e:	080007b7          	lui	a5,0x8000
80000082:	c606                	sw	ra,12(sp)
80000084:	00001717          	auipc	a4,0x1
80000088:	c6c70713          	add	a4,a4,-916 # 80000cf0 <heap>
8000008c:	97b6                	add	a5,a5,a3
8000008e:	00001517          	auipc	a0,0x1
80000092:	b6e50513          	add	a0,a0,-1170 # 80000bfc <memcmp+0x26>
80000096:	c314                	sw	a3,0(a4)
80000098:	c35c                	sw	a5,4(a4)
8000009a:	3f8d                	jal	8000000c <main>
8000009c:	2091                	jal	800000e0 <__halt>
8000009e:	a001                	j	8000009e <__run_main+0x2a>

800000a0 <putchar>:
800000a0:	1141                	add	sp,sp,-16
800000a2:	0ff57513          	zext.b	a0,a0
800000a6:	c606                	sw	ra,12(sp)
800000a8:	2029                	jal	800000b2 <__am_uart_tx>
800000aa:	40b2                	lw	ra,12(sp)
800000ac:	4501                	li	a0,0
800000ae:	0141                	add	sp,sp,16
800000b0:	8082                	ret

800000b2 <__am_uart_tx>:
800000b2:	10000737          	lui	a4,0x10000
800000b6:	00574783          	lbu	a5,5(a4) # 10000005 <_entry_offset+0x10000005>
800000ba:	0207f793          	and	a5,a5,32
800000be:	dfe5                	beqz	a5,800000b6 <__am_uart_tx+0x4>
800000c0:	00a70023          	sb	a0,0(a4)
800000c4:	8082                	ret

800000c6 <__uart_rx>:
800000c6:	10000737          	lui	a4,0x10000
800000ca:	00574783          	lbu	a5,5(a4) # 10000005 <_entry_offset+0x10000005>
800000ce:	0ff00513          	li	a0,255
800000d2:	8b85                	and	a5,a5,1
800000d4:	c789                	beqz	a5,800000de <__uart_rx+0x18>
800000d6:	00074503          	lbu	a0,0(a4)
800000da:	0ff57513          	zext.b	a0,a0
800000de:	8082                	ret

800000e0 <__halt>:
800000e0:	852a                	mv	a0,a0
800000e2:	9002                	ebreak
800000e4:	8082                	ret

800000e6 <write_buffer_out>:
800000e6:	4158                	lw	a4,4(a0)
800000e8:	411c                	lw	a5,0(a0)
800000ea:	00170693          	add	a3,a4,1
800000ee:	c154                	sw	a3,4(a0)
800000f0:	97ba                	add	a5,a5,a4
800000f2:	00b78023          	sb	a1,0(a5) # 8000000 <_entry_offset+0x8000000>
800000f6:	8082                	ret

800000f8 <__fmt_s>:
800000f8:	419c                	lw	a5,0(a1)
800000fa:	1141                	add	sp,sp,-16
800000fc:	c422                	sw	s0,8(sp)
800000fe:	c606                	sw	ra,12(sp)
80000100:	c226                	sw	s1,4(sp)
80000102:	00478713          	add	a4,a5,4
80000106:	c198                	sw	a4,0(a1)
80000108:	4380                	lw	s0,0(a5)
8000010a:	00044583          	lbu	a1,0(s0)
8000010e:	c989                	beqz	a1,80000120 <__fmt_s+0x28>
80000110:	84aa                	mv	s1,a0
80000112:	449c                	lw	a5,8(s1)
80000114:	8526                	mv	a0,s1
80000116:	0405                	add	s0,s0,1
80000118:	9782                	jalr	a5
8000011a:	00044583          	lbu	a1,0(s0)
8000011e:	f9f5                	bnez	a1,80000112 <__fmt_s+0x1a>
80000120:	40b2                	lw	ra,12(sp)
80000122:	4422                	lw	s0,8(sp)
80000124:	4492                	lw	s1,4(sp)
80000126:	0141                	add	sp,sp,16
80000128:	8082                	ret

8000012a <__fmt_d>:
8000012a:	419c                	lw	a5,0(a1)
8000012c:	7179                	add	sp,sp,-48
8000012e:	d226                	sw	s1,36(sp)
80000130:	d606                	sw	ra,44(sp)
80000132:	d422                	sw	s0,40(sp)
80000134:	d04a                	sw	s2,32(sp)
80000136:	ce4e                	sw	s3,28(sp)
80000138:	cc52                	sw	s4,24(sp)
8000013a:	ca56                	sw	s5,20(sp)
8000013c:	00478713          	add	a4,a5,4
80000140:	c198                	sw	a4,0(a1)
80000142:	00064703          	lbu	a4,0(a2)
80000146:	0007a803          	lw	a6,0(a5)
8000014a:	84aa                	mv	s1,a0
8000014c:	cb49                	beqz	a4,800001de <__fmt_d+0xb4>
8000014e:	03000793          	li	a5,48
80000152:	12f70e63          	beq	a4,a5,8000028e <__fmt_d+0x164>
80000156:	02d00793          	li	a5,45
8000015a:	16f70b63          	beq	a4,a5,800002d0 <__fmt_d+0x1a6>
8000015e:	4a01                	li	s4,0
80000160:	4581                	li	a1,0
80000162:	4901                	li	s2,0
80000164:	00291793          	sll	a5,s2,0x2
80000168:	97ca                	add	a5,a5,s2
8000016a:	0786                	sll	a5,a5,0x1
8000016c:	0605                	add	a2,a2,1
8000016e:	97ba                	add	a5,a5,a4
80000170:	00064703          	lbu	a4,0(a2)
80000174:	fd078913          	add	s2,a5,-48
80000178:	f775                	bnez	a4,80000164 <__fmt_d+0x3a>
8000017a:	c002                	sw	zero,0(sp)
8000017c:	c202                	sw	zero,4(sp)
8000017e:	c402                	sw	zero,8(sp)
80000180:	00010623          	sb	zero,12(sp)
80000184:	14081e63          	bnez	a6,800002e0 <__fmt_d+0x1b6>
80000188:	03000793          	li	a5,48
8000018c:	00f10023          	sb	a5,0(sp)
80000190:	4785                	li	a5,1
80000192:	0b27d863          	bge	a5,s2,80000242 <__fmt_d+0x118>
80000196:	100a1863          	bnez	s4,800002a6 <__fmt_d+0x17c>
8000019a:	14058963          	beqz	a1,800002ec <__fmt_d+0x1c2>
8000019e:	8aae                	mv	s5,a1
800001a0:	00110413          	add	s0,sp,1
800001a4:	03000a13          	li	s4,48
800001a8:	898a                	mv	s3,sp
800001aa:	449c                	lw	a5,8(s1)
800001ac:	0a85                	add	s5,s5,1
800001ae:	85d2                	mv	a1,s4
800001b0:	8526                	mv	a0,s1
800001b2:	9782                	jalr	a5
800001b4:	ff2acbe3          	blt	s5,s2,800001aa <__fmt_d+0x80>
800001b8:	0089fa63          	bgeu	s3,s0,800001cc <__fmt_d+0xa2>
800001bc:	fff44583          	lbu	a1,-1(s0)
800001c0:	449c                	lw	a5,8(s1)
800001c2:	147d                	add	s0,s0,-1
800001c4:	8526                	mv	a0,s1
800001c6:	9782                	jalr	a5
800001c8:	ff341ae3          	bne	s0,s3,800001bc <__fmt_d+0x92>
800001cc:	50b2                	lw	ra,44(sp)
800001ce:	5422                	lw	s0,40(sp)
800001d0:	5492                	lw	s1,36(sp)
800001d2:	5902                	lw	s2,32(sp)
800001d4:	49f2                	lw	s3,28(sp)
800001d6:	4a62                	lw	s4,24(sp)
800001d8:	4ad2                	lw	s5,20(sp)
800001da:	6145                	add	sp,sp,48
800001dc:	8082                	ret
800001de:	4581                	li	a1,0
800001e0:	4a01                	li	s4,0
800001e2:	c002                	sw	zero,0(sp)
800001e4:	c202                	sw	zero,4(sp)
800001e6:	c402                	sw	zero,8(sp)
800001e8:	00010623          	sb	zero,12(sp)
800001ec:	04080763          	beqz	a6,8000023a <__fmt_d+0x110>
800001f0:	41f85713          	sra	a4,a6,0x1f
800001f4:	010747b3          	xor	a5,a4,a6
800001f8:	8f99                	sub	a5,a5,a4
800001fa:	4901                	li	s2,0
800001fc:	898a                	mv	s3,sp
800001fe:	844e                	mv	s0,s3
80000200:	46a9                	li	a3,10
80000202:	02d7e733          	rem	a4,a5,a3
80000206:	0405                	add	s0,s0,1
80000208:	02d7c7b3          	div	a5,a5,a3
8000020c:	03070713          	add	a4,a4,48
80000210:	fee40fa3          	sb	a4,-1(s0)
80000214:	f7fd                	bnez	a5,80000202 <__fmt_d+0xd8>
80000216:	41340ab3          	sub	s5,s0,s3
8000021a:	052ad863          	bge	s5,s2,8000026a <__fmt_d+0x140>
8000021e:	0a0a0263          	beqz	s4,800002c2 <__fmt_d+0x198>
80000222:	0089fa63          	bgeu	s3,s0,80000236 <__fmt_d+0x10c>
80000226:	fff44583          	lbu	a1,-1(s0)
8000022a:	449c                	lw	a5,8(s1)
8000022c:	147d                	add	s0,s0,-1
8000022e:	8526                	mv	a0,s1
80000230:	9782                	jalr	a5
80000232:	fe89eae3          	bltu	s3,s0,80000226 <__fmt_d+0xfc>
80000236:	8a56                	mv	s4,s5
80000238:	a8a5                	j	800002b0 <__fmt_d+0x186>
8000023a:	03000793          	li	a5,48
8000023e:	00f10023          	sb	a5,0(sp)
80000242:	00110413          	add	s0,sp,1
80000246:	898a                	mv	s3,sp
80000248:	fff44583          	lbu	a1,-1(s0)
8000024c:	449c                	lw	a5,8(s1)
8000024e:	147d                	add	s0,s0,-1
80000250:	8526                	mv	a0,s1
80000252:	9782                	jalr	a5
80000254:	f7340ce3          	beq	s0,s3,800001cc <__fmt_d+0xa2>
80000258:	fff44583          	lbu	a1,-1(s0)
8000025c:	449c                	lw	a5,8(s1)
8000025e:	147d                	add	s0,s0,-1
80000260:	8526                	mv	a0,s1
80000262:	9782                	jalr	a5
80000264:	ff3412e3          	bne	s0,s3,80000248 <__fmt_d+0x11e>
80000268:	b795                	j	800001cc <__fmt_d+0xa2>
8000026a:	00085763          	bgez	a6,80000278 <__fmt_d+0x14e>
8000026e:	449c                	lw	a5,8(s1)
80000270:	02d00593          	li	a1,45
80000274:	8526                	mv	a0,s1
80000276:	9782                	jalr	a5
80000278:	f489fae3          	bgeu	s3,s0,800001cc <__fmt_d+0xa2>
8000027c:	fff44583          	lbu	a1,-1(s0)
80000280:	449c                	lw	a5,8(s1)
80000282:	147d                	add	s0,s0,-1
80000284:	8526                	mv	a0,s1
80000286:	9782                	jalr	a5
80000288:	fd3418e3          	bne	s0,s3,80000258 <__fmt_d+0x12e>
8000028c:	b781                	j	800001cc <__fmt_d+0xa2>
8000028e:	00164703          	lbu	a4,1(a2)
80000292:	02d00793          	li	a5,45
80000296:	0605                	add	a2,a2,1
80000298:	4585                	li	a1,1
8000029a:	4a01                	li	s4,0
8000029c:	02f70b63          	beq	a4,a5,800002d2 <__fmt_d+0x1a8>
800002a0:	ec0711e3          	bnez	a4,80000162 <__fmt_d+0x38>
800002a4:	bf3d                	j	800001e2 <__fmt_d+0xb8>
800002a6:	449c                	lw	a5,8(s1)
800002a8:	03000593          	li	a1,48
800002ac:	8526                	mv	a0,s1
800002ae:	9782                	jalr	a5
800002b0:	449c                	lw	a5,8(s1)
800002b2:	0a05                	add	s4,s4,1
800002b4:	02000593          	li	a1,32
800002b8:	8526                	mv	a0,s1
800002ba:	9782                	jalr	a5
800002bc:	ff2a4ae3          	blt	s4,s2,800002b0 <__fmt_d+0x186>
800002c0:	b731                	j	800001cc <__fmt_d+0xa2>
800002c2:	fff58a13          	add	s4,a1,-1
800002c6:	ff0a7a13          	and	s4,s4,-16
800002ca:	030a0a13          	add	s4,s4,48
800002ce:	bdf1                	j	800001aa <__fmt_d+0x80>
800002d0:	4581                	li	a1,0
800002d2:	00164703          	lbu	a4,1(a2)
800002d6:	4a05                	li	s4,1
800002d8:	0605                	add	a2,a2,1
800002da:	e80714e3          	bnez	a4,80000162 <__fmt_d+0x38>
800002de:	b711                	j	800001e2 <__fmt_d+0xb8>
800002e0:	41f85713          	sra	a4,a6,0x1f
800002e4:	010747b3          	xor	a5,a4,a6
800002e8:	8f99                	sub	a5,a5,a4
800002ea:	bf09                	j	800001fc <__fmt_d+0xd2>
800002ec:	4a85                	li	s5,1
800002ee:	00110413          	add	s0,sp,1
800002f2:	02000a13          	li	s4,32
800002f6:	898a                	mv	s3,sp
800002f8:	bd4d                	j	800001aa <__fmt_d+0x80>

800002fa <__fmt_u>:
800002fa:	419c                	lw	a5,0(a1)
800002fc:	7179                	add	sp,sp,-48
800002fe:	d226                	sw	s1,36(sp)
80000300:	d606                	sw	ra,44(sp)
80000302:	d422                	sw	s0,40(sp)
80000304:	d04a                	sw	s2,32(sp)
80000306:	ce4e                	sw	s3,28(sp)
80000308:	cc52                	sw	s4,24(sp)
8000030a:	ca56                	sw	s5,20(sp)
8000030c:	00478713          	add	a4,a5,4
80000310:	c198                	sw	a4,0(a1)
80000312:	00064683          	lbu	a3,0(a2)
80000316:	4398                	lw	a4,0(a5)
80000318:	84aa                	mv	s1,a0
8000031a:	cec9                	beqz	a3,800003b4 <__fmt_u+0xba>
8000031c:	03000793          	li	a5,48
80000320:	10f68663          	beq	a3,a5,8000042c <__fmt_u+0x132>
80000324:	02d00793          	li	a5,45
80000328:	10f68f63          	beq	a3,a5,80000446 <__fmt_u+0x14c>
8000032c:	4501                	li	a0,0
8000032e:	4a81                	li	s5,0
80000330:	4901                	li	s2,0
80000332:	00291793          	sll	a5,s2,0x2
80000336:	97ca                	add	a5,a5,s2
80000338:	0786                	sll	a5,a5,0x1
8000033a:	0605                	add	a2,a2,1
8000033c:	97b6                	add	a5,a5,a3
8000033e:	00064683          	lbu	a3,0(a2)
80000342:	fd078913          	add	s2,a5,-48
80000346:	f6f5                	bnez	a3,80000332 <__fmt_u+0x38>
80000348:	c002                	sw	zero,0(sp)
8000034a:	c202                	sw	zero,4(sp)
8000034c:	c402                	sw	zero,8(sp)
8000034e:	00010623          	sb	zero,12(sp)
80000352:	cb35                	beqz	a4,800003c6 <__fmt_u+0xcc>
80000354:	8a0a                	mv	s4,sp
80000356:	8452                	mv	s0,s4
80000358:	46a9                	li	a3,10
8000035a:	45a5                	li	a1,9
8000035c:	02d777b3          	remu	a5,a4,a3
80000360:	0405                	add	s0,s0,1
80000362:	863a                	mv	a2,a4
80000364:	03078793          	add	a5,a5,48
80000368:	fef40fa3          	sb	a5,-1(s0)
8000036c:	02d75733          	divu	a4,a4,a3
80000370:	fec5e6e3          	bltu	a1,a2,8000035c <__fmt_u+0x62>
80000374:	414409b3          	sub	s3,s0,s4
80000378:	0b29d163          	bge	s3,s2,8000041a <__fmt_u+0x120>
8000037c:	c925                	beqz	a0,800003ec <__fmt_u+0xf2>
8000037e:	008a7a63          	bgeu	s4,s0,80000392 <__fmt_u+0x98>
80000382:	fff44583          	lbu	a1,-1(s0)
80000386:	449c                	lw	a5,8(s1)
80000388:	147d                	add	s0,s0,-1
8000038a:	8526                	mv	a0,s1
8000038c:	9782                	jalr	a5
8000038e:	ff441ae3          	bne	s0,s4,80000382 <__fmt_u+0x88>
80000392:	449c                	lw	a5,8(s1)
80000394:	0985                	add	s3,s3,1
80000396:	02000593          	li	a1,32
8000039a:	8526                	mv	a0,s1
8000039c:	9782                	jalr	a5
8000039e:	ff391ae3          	bne	s2,s3,80000392 <__fmt_u+0x98>
800003a2:	50b2                	lw	ra,44(sp)
800003a4:	5422                	lw	s0,40(sp)
800003a6:	5492                	lw	s1,36(sp)
800003a8:	5902                	lw	s2,32(sp)
800003aa:	49f2                	lw	s3,28(sp)
800003ac:	4a62                	lw	s4,24(sp)
800003ae:	4ad2                	lw	s5,20(sp)
800003b0:	6145                	add	sp,sp,48
800003b2:	8082                	ret
800003b4:	4a81                	li	s5,0
800003b6:	4901                	li	s2,0
800003b8:	4501                	li	a0,0
800003ba:	c002                	sw	zero,0(sp)
800003bc:	c202                	sw	zero,4(sp)
800003be:	c402                	sw	zero,8(sp)
800003c0:	00010623          	sb	zero,12(sp)
800003c4:	fb41                	bnez	a4,80000354 <__fmt_u+0x5a>
800003c6:	03000793          	li	a5,48
800003ca:	00f10023          	sb	a5,0(sp)
800003ce:	4785                	li	a5,1
800003d0:	0527c863          	blt	a5,s2,80000420 <__fmt_u+0x126>
800003d4:	00110413          	add	s0,sp,1
800003d8:	8a0a                	mv	s4,sp
800003da:	fff44583          	lbu	a1,-1(s0)
800003de:	449c                	lw	a5,8(s1)
800003e0:	147d                	add	s0,s0,-1
800003e2:	8526                	mv	a0,s1
800003e4:	9782                	jalr	a5
800003e6:	ff441ae3          	bne	s0,s4,800003da <__fmt_u+0xe0>
800003ea:	bf65                	j	800003a2 <__fmt_u+0xa8>
800003ec:	1afd                	add	s5,s5,-1
800003ee:	ff0afa93          	and	s5,s5,-16
800003f2:	030a8a93          	add	s5,s5,48
800003f6:	449c                	lw	a5,8(s1)
800003f8:	0985                	add	s3,s3,1
800003fa:	85d6                	mv	a1,s5
800003fc:	8526                	mv	a0,s1
800003fe:	9782                	jalr	a5
80000400:	ff391be3          	bne	s2,s3,800003f6 <__fmt_u+0xfc>
80000404:	f88a7fe3          	bgeu	s4,s0,800003a2 <__fmt_u+0xa8>
80000408:	fff44583          	lbu	a1,-1(s0)
8000040c:	449c                	lw	a5,8(s1)
8000040e:	147d                	add	s0,s0,-1
80000410:	8526                	mv	a0,s1
80000412:	9782                	jalr	a5
80000414:	ff441ae3          	bne	s0,s4,80000408 <__fmt_u+0x10e>
80000418:	b769                	j	800003a2 <__fmt_u+0xa8>
8000041a:	fc8a60e3          	bltu	s4,s0,800003da <__fmt_u+0xe0>
8000041e:	b751                	j	800003a2 <__fmt_u+0xa8>
80000420:	4985                	li	s3,1
80000422:	00110413          	add	s0,sp,1
80000426:	8a0a                	mv	s4,sp
80000428:	d171                	beqz	a0,800003ec <__fmt_u+0xf2>
8000042a:	bf91                	j	8000037e <__fmt_u+0x84>
8000042c:	00164683          	lbu	a3,1(a2)
80000430:	02d00793          	li	a5,45
80000434:	0605                	add	a2,a2,1
80000436:	4a85                	li	s5,1
80000438:	4501                	li	a0,0
8000043a:	00f68763          	beq	a3,a5,80000448 <__fmt_u+0x14e>
8000043e:	4901                	li	s2,0
80000440:	ee0698e3          	bnez	a3,80000330 <__fmt_u+0x36>
80000444:	bf9d                	j	800003ba <__fmt_u+0xc0>
80000446:	4a81                	li	s5,0
80000448:	00164683          	lbu	a3,1(a2)
8000044c:	4505                	li	a0,1
8000044e:	0605                	add	a2,a2,1
80000450:	b7fd                	j	8000043e <__fmt_u+0x144>

80000452 <__fmt_llu>:
80000452:	419c                	lw	a5,0(a1)
80000454:	7179                	add	sp,sp,-48
80000456:	d04a                	sw	s2,32(sp)
80000458:	079d                	add	a5,a5,7
8000045a:	9be1                	and	a5,a5,-8
8000045c:	4394                	lw	a3,0(a5)
8000045e:	43d0                	lw	a2,4(a5)
80000460:	d606                	sw	ra,44(sp)
80000462:	07a1                	add	a5,a5,8
80000464:	d422                	sw	s0,40(sp)
80000466:	d226                	sw	s1,36(sp)
80000468:	c19c                	sw	a5,0(a1)
8000046a:	00c6e7b3          	or	a5,a3,a2
8000046e:	892a                	mv	s2,a0
80000470:	eb91                	bnez	a5,80000484 <__fmt_llu+0x32>
80000472:	5422                	lw	s0,40(sp)
80000474:	50b2                	lw	ra,44(sp)
80000476:	5492                	lw	s1,36(sp)
80000478:	5902                	lw	s2,32(sp)
8000047a:	451c                	lw	a5,8(a0)
8000047c:	03000593          	li	a1,48
80000480:	6145                	add	sp,sp,48
80000482:	8782                	jr	a5
80000484:	ccccd8b7          	lui	a7,0xccccd
80000488:	0020                	add	s0,sp,8
8000048a:	ccd88593          	add	a1,a7,-819 # cccccccd <__heap_start+0x4ccc3ccd>
8000048e:	c402                	sw	zero,8(sp)
80000490:	c602                	sw	zero,12(sp)
80000492:	c802                	sw	zero,16(sp)
80000494:	ca02                	sw	zero,20(sp)
80000496:	cc02                	sw	zero,24(sp)
80000498:	00010e23          	sb	zero,28(sp)
8000049c:	84a2                	mv	s1,s0
8000049e:	4315                	li	t1,5
800004a0:	ccc88893          	add	a7,a7,-820
800004a4:	00c687b3          	add	a5,a3,a2
800004a8:	00d7b733          	sltu	a4,a5,a3
800004ac:	97ba                	add	a5,a5,a4
800004ae:	0267f7b3          	remu	a5,a5,t1
800004b2:	8532                	mv	a0,a2
800004b4:	0485                	add	s1,s1,1
800004b6:	8e36                	mv	t3,a3
800004b8:	40f687b3          	sub	a5,a3,a5
800004bc:	00f6b733          	sltu	a4,a3,a5
800004c0:	40e60733          	sub	a4,a2,a4
800004c4:	03178833          	mul	a6,a5,a7
800004c8:	02b70733          	mul	a4,a4,a1
800004cc:	02b7b633          	mulhu	a2,a5,a1
800004d0:	9742                	add	a4,a4,a6
800004d2:	02b787b3          	mul	a5,a5,a1
800004d6:	9732                	add	a4,a4,a2
800004d8:	01f71813          	sll	a6,a4,0x1f
800004dc:	00175613          	srl	a2,a4,0x1
800004e0:	8385                	srl	a5,a5,0x1
800004e2:	00f867b3          	or	a5,a6,a5
800004e6:	00279713          	sll	a4,a5,0x2
800004ea:	973e                	add	a4,a4,a5
800004ec:	0706                	sll	a4,a4,0x1
800004ee:	40e68733          	sub	a4,a3,a4
800004f2:	03070713          	add	a4,a4,48
800004f6:	fee48fa3          	sb	a4,-1(s1)
800004fa:	86be                	mv	a3,a5
800004fc:	f545                	bnez	a0,800004a4 <__fmt_llu+0x52>
800004fe:	47a5                	li	a5,9
80000500:	fbc7e2e3          	bltu	a5,t3,800004a4 <__fmt_llu+0x52>
80000504:	00947b63          	bgeu	s0,s1,8000051a <__fmt_llu+0xc8>
80000508:	fff4c583          	lbu	a1,-1(s1)
8000050c:	00892783          	lw	a5,8(s2)
80000510:	14fd                	add	s1,s1,-1
80000512:	854a                	mv	a0,s2
80000514:	9782                	jalr	a5
80000516:	fe8499e3          	bne	s1,s0,80000508 <__fmt_llu+0xb6>
8000051a:	50b2                	lw	ra,44(sp)
8000051c:	5422                	lw	s0,40(sp)
8000051e:	5492                	lw	s1,36(sp)
80000520:	5902                	lw	s2,32(sp)
80000522:	6145                	add	sp,sp,48
80000524:	8082                	ret

80000526 <__fmt_lld>:
80000526:	419c                	lw	a5,0(a1)
80000528:	7139                	add	sp,sp,-64
8000052a:	d84a                	sw	s2,48(sp)
8000052c:	079d                	add	a5,a5,7
8000052e:	9be1                	and	a5,a5,-8
80000530:	de06                	sw	ra,60(sp)
80000532:	dc22                	sw	s0,56(sp)
80000534:	da26                	sw	s1,52(sp)
80000536:	d64e                	sw	s3,44(sp)
80000538:	d452                	sw	s4,40(sp)
8000053a:	d256                	sw	s5,36(sp)
8000053c:	00878713          	add	a4,a5,8
80000540:	c198                	sw	a4,0(a1)
80000542:	00064703          	lbu	a4,0(a2)
80000546:	4394                	lw	a3,0(a5)
80000548:	0047a803          	lw	a6,4(a5)
8000054c:	892a                	mv	s2,a0
8000054e:	cf59                	beqz	a4,800005ec <__fmt_lld+0xc6>
80000550:	03000793          	li	a5,48
80000554:	1af70e63          	beq	a4,a5,80000710 <__fmt_lld+0x1ea>
80000558:	02d00793          	li	a5,45
8000055c:	1ef70c63          	beq	a4,a5,80000754 <__fmt_lld+0x22e>
80000560:	4981                	li	s3,0
80000562:	4581                	li	a1,0
80000564:	4a01                	li	s4,0
80000566:	002a1793          	sll	a5,s4,0x2
8000056a:	97d2                	add	a5,a5,s4
8000056c:	0786                	sll	a5,a5,0x1
8000056e:	0605                	add	a2,a2,1
80000570:	97ba                	add	a5,a5,a4
80000572:	00064703          	lbu	a4,0(a2)
80000576:	fd078a13          	add	s4,a5,-48
8000057a:	f775                	bnez	a4,80000566 <__fmt_lld+0x40>
8000057c:	c402                	sw	zero,8(sp)
8000057e:	c602                	sw	zero,12(sp)
80000580:	c802                	sw	zero,16(sp)
80000582:	ca02                	sw	zero,20(sp)
80000584:	cc02                	sw	zero,24(sp)
80000586:	00010e23          	sb	zero,28(sp)
8000058a:	0106e7b3          	or	a5,a3,a6
8000058e:	1c079b63          	bnez	a5,80000764 <__fmt_lld+0x23e>
80000592:	03000793          	li	a5,48
80000596:	00f10423          	sb	a5,8(sp)
8000059a:	4785                	li	a5,1
8000059c:	1347d063          	bge	a5,s4,800006bc <__fmt_lld+0x196>
800005a0:	18099463          	bnez	s3,80000728 <__fmt_lld+0x202>
800005a4:	1c058f63          	beqz	a1,80000782 <__fmt_lld+0x25c>
800005a8:	8aae                	mv	s5,a1
800005aa:	00910413          	add	s0,sp,9
800005ae:	03000993          	li	s3,48
800005b2:	0024                	add	s1,sp,8
800005b4:	00892783          	lw	a5,8(s2)
800005b8:	0a85                	add	s5,s5,1
800005ba:	85ce                	mv	a1,s3
800005bc:	854a                	mv	a0,s2
800005be:	9782                	jalr	a5
800005c0:	ff4acae3          	blt	s5,s4,800005b4 <__fmt_lld+0x8e>
800005c4:	0084fb63          	bgeu	s1,s0,800005da <__fmt_lld+0xb4>
800005c8:	fff44583          	lbu	a1,-1(s0)
800005cc:	00892783          	lw	a5,8(s2)
800005d0:	147d                	add	s0,s0,-1
800005d2:	854a                	mv	a0,s2
800005d4:	9782                	jalr	a5
800005d6:	fe9419e3          	bne	s0,s1,800005c8 <__fmt_lld+0xa2>
800005da:	50f2                	lw	ra,60(sp)
800005dc:	5462                	lw	s0,56(sp)
800005de:	54d2                	lw	s1,52(sp)
800005e0:	5942                	lw	s2,48(sp)
800005e2:	59b2                	lw	s3,44(sp)
800005e4:	5a22                	lw	s4,40(sp)
800005e6:	5a92                	lw	s5,36(sp)
800005e8:	6121                	add	sp,sp,64
800005ea:	8082                	ret
800005ec:	4581                	li	a1,0
800005ee:	4981                	li	s3,0
800005f0:	c402                	sw	zero,8(sp)
800005f2:	c602                	sw	zero,12(sp)
800005f4:	c802                	sw	zero,16(sp)
800005f6:	ca02                	sw	zero,20(sp)
800005f8:	cc02                	sw	zero,24(sp)
800005fa:	00010e23          	sb	zero,28(sp)
800005fe:	0106e7b3          	or	a5,a3,a6
80000602:	cbcd                	beqz	a5,800006b4 <__fmt_lld+0x18e>
80000604:	41f85793          	sra	a5,a6,0x1f
80000608:	8ebd                	xor	a3,a3,a5
8000060a:	40f68733          	sub	a4,a3,a5
8000060e:	0107c333          	xor	t1,a5,a6
80000612:	00e6b633          	sltu	a2,a3,a4
80000616:	40f307b3          	sub	a5,t1,a5
8000061a:	86ba                	mv	a3,a4
8000061c:	40c78333          	sub	t1,a5,a2
80000620:	4a01                	li	s4,0
80000622:	ccccd537          	lui	a0,0xccccd
80000626:	0024                	add	s1,sp,8
80000628:	ccd50613          	add	a2,a0,-819 # cccccccd <__heap_start+0x4ccc3ccd>
8000062c:	8426                	mv	s0,s1
8000062e:	4895                	li	a7,5
80000630:	ccc50513          	add	a0,a0,-820
80000634:	006687b3          	add	a5,a3,t1
80000638:	00d7b733          	sltu	a4,a5,a3
8000063c:	97ba                	add	a5,a5,a4
8000063e:	0317f7b3          	remu	a5,a5,a7
80000642:	0405                	add	s0,s0,1
80000644:	40f687b3          	sub	a5,a3,a5
80000648:	00f6b733          	sltu	a4,a3,a5
8000064c:	40e30733          	sub	a4,t1,a4
80000650:	02a78e33          	mul	t3,a5,a0
80000654:	02c70733          	mul	a4,a4,a2
80000658:	02c7b333          	mulhu	t1,a5,a2
8000065c:	9772                	add	a4,a4,t3
8000065e:	02c787b3          	mul	a5,a5,a2
80000662:	971a                	add	a4,a4,t1
80000664:	01f71e13          	sll	t3,a4,0x1f
80000668:	00175313          	srl	t1,a4,0x1
8000066c:	8385                	srl	a5,a5,0x1
8000066e:	00fe67b3          	or	a5,t3,a5
80000672:	00279713          	sll	a4,a5,0x2
80000676:	973e                	add	a4,a4,a5
80000678:	0706                	sll	a4,a4,0x1
8000067a:	40e68733          	sub	a4,a3,a4
8000067e:	03070713          	add	a4,a4,48
80000682:	86be                	mv	a3,a5
80000684:	fee40fa3          	sb	a4,-1(s0)
80000688:	0067e7b3          	or	a5,a5,t1
8000068c:	f7c5                	bnez	a5,80000634 <__fmt_lld+0x10e>
8000068e:	40940ab3          	sub	s5,s0,s1
80000692:	054adb63          	bge	s5,s4,800006e8 <__fmt_lld+0x1c2>
80000696:	0a098963          	beqz	s3,80000748 <__fmt_lld+0x222>
8000069a:	0084fb63          	bgeu	s1,s0,800006b0 <__fmt_lld+0x18a>
8000069e:	fff44583          	lbu	a1,-1(s0)
800006a2:	00892783          	lw	a5,8(s2)
800006a6:	147d                	add	s0,s0,-1
800006a8:	854a                	mv	a0,s2
800006aa:	9782                	jalr	a5
800006ac:	fe84e9e3          	bltu	s1,s0,8000069e <__fmt_lld+0x178>
800006b0:	89d6                	mv	s3,s5
800006b2:	a049                	j	80000734 <__fmt_lld+0x20e>
800006b4:	03000793          	li	a5,48
800006b8:	00f10423          	sb	a5,8(sp)
800006bc:	00910413          	add	s0,sp,9
800006c0:	0024                	add	s1,sp,8
800006c2:	fff44583          	lbu	a1,-1(s0)
800006c6:	00892783          	lw	a5,8(s2)
800006ca:	147d                	add	s0,s0,-1
800006cc:	854a                	mv	a0,s2
800006ce:	9782                	jalr	a5
800006d0:	f09405e3          	beq	s0,s1,800005da <__fmt_lld+0xb4>
800006d4:	fff44583          	lbu	a1,-1(s0)
800006d8:	00892783          	lw	a5,8(s2)
800006dc:	147d                	add	s0,s0,-1
800006de:	854a                	mv	a0,s2
800006e0:	9782                	jalr	a5
800006e2:	fe9410e3          	bne	s0,s1,800006c2 <__fmt_lld+0x19c>
800006e6:	bdd5                	j	800005da <__fmt_lld+0xb4>
800006e8:	00085863          	bgez	a6,800006f8 <__fmt_lld+0x1d2>
800006ec:	00892783          	lw	a5,8(s2)
800006f0:	02d00593          	li	a1,45
800006f4:	854a                	mv	a0,s2
800006f6:	9782                	jalr	a5
800006f8:	ee84f1e3          	bgeu	s1,s0,800005da <__fmt_lld+0xb4>
800006fc:	fff44583          	lbu	a1,-1(s0)
80000700:	00892783          	lw	a5,8(s2)
80000704:	147d                	add	s0,s0,-1
80000706:	854a                	mv	a0,s2
80000708:	9782                	jalr	a5
8000070a:	fc9415e3          	bne	s0,s1,800006d4 <__fmt_lld+0x1ae>
8000070e:	b5f1                	j	800005da <__fmt_lld+0xb4>
80000710:	00164703          	lbu	a4,1(a2)
80000714:	02d00793          	li	a5,45
80000718:	0605                	add	a2,a2,1
8000071a:	4585                	li	a1,1
8000071c:	4981                	li	s3,0
8000071e:	02f70c63          	beq	a4,a5,80000756 <__fmt_lld+0x230>
80000722:	e40711e3          	bnez	a4,80000564 <__fmt_lld+0x3e>
80000726:	b5e9                	j	800005f0 <__fmt_lld+0xca>
80000728:	00892783          	lw	a5,8(s2)
8000072c:	03000593          	li	a1,48
80000730:	854a                	mv	a0,s2
80000732:	9782                	jalr	a5
80000734:	00892783          	lw	a5,8(s2)
80000738:	0985                	add	s3,s3,1
8000073a:	02000593          	li	a1,32
8000073e:	854a                	mv	a0,s2
80000740:	9782                	jalr	a5
80000742:	ff49c9e3          	blt	s3,s4,80000734 <__fmt_lld+0x20e>
80000746:	bd51                	j	800005da <__fmt_lld+0xb4>
80000748:	15fd                	add	a1,a1,-1
8000074a:	ff05f993          	and	s3,a1,-16
8000074e:	03098993          	add	s3,s3,48
80000752:	b58d                	j	800005b4 <__fmt_lld+0x8e>
80000754:	4581                	li	a1,0
80000756:	00164703          	lbu	a4,1(a2)
8000075a:	4985                	li	s3,1
8000075c:	0605                	add	a2,a2,1
8000075e:	e00713e3          	bnez	a4,80000564 <__fmt_lld+0x3e>
80000762:	b579                	j	800005f0 <__fmt_lld+0xca>
80000764:	41f85793          	sra	a5,a6,0x1f
80000768:	8ebd                	xor	a3,a3,a5
8000076a:	40f68733          	sub	a4,a3,a5
8000076e:	0107c333          	xor	t1,a5,a6
80000772:	00e6b633          	sltu	a2,a3,a4
80000776:	40f307b3          	sub	a5,t1,a5
8000077a:	86ba                	mv	a3,a4
8000077c:	40c78333          	sub	t1,a5,a2
80000780:	b54d                	j	80000622 <__fmt_lld+0xfc>
80000782:	4a85                	li	s5,1
80000784:	00910413          	add	s0,sp,9
80000788:	02000993          	li	s3,32
8000078c:	0024                	add	s1,sp,8
8000078e:	b51d                	j	800005b4 <__fmt_lld+0x8e>

80000790 <write_buffer_putch>:
80000790:	852e                	mv	a0,a1
80000792:	b239                	j	800000a0 <putchar>

80000794 <__vsprintf.constprop.0>:
80000794:	715d                	add	sp,sp,-80
80000796:	c4a2                	sw	s0,72(sp)
80000798:	de4e                	sw	s3,60(sp)
8000079a:	c686                	sw	ra,76(sp)
8000079c:	c2a6                	sw	s1,68(sp)
8000079e:	c0ca                	sw	s2,64(sp)
800007a0:	dc52                	sw	s4,56(sp)
800007a2:	da56                	sw	s5,52(sp)
800007a4:	d85a                	sw	s6,48(sp)
800007a6:	d65e                	sw	s7,44(sp)
800007a8:	842e                	mv	s0,a1
800007aa:	0005c583          	lbu	a1,0(a1)
800007ae:	c632                	sw	a2,12(sp)
800007b0:	89aa                	mv	s3,a0
800007b2:	c595                	beqz	a1,800007de <__vsprintf.constprop.0+0x4a>
800007b4:	02500a13          	li	s4,37
800007b8:	01410b13          	add	s6,sp,20
800007bc:	00000b97          	auipc	s7,0x0
800007c0:	474b8b93          	add	s7,s7,1140 # 80000c30 <fmtTable>
800007c4:	4aa1                	li	s5,8
800007c6:	00140913          	add	s2,s0,1
800007ca:	03458c63          	beq	a1,s4,80000802 <__vsprintf.constprop.0+0x6e>
800007ce:	0089a783          	lw	a5,8(s3)
800007d2:	854e                	mv	a0,s3
800007d4:	9782                	jalr	a5
800007d6:	844a                	mv	s0,s2
800007d8:	00044583          	lbu	a1,0(s0)
800007dc:	f5ed                	bnez	a1,800007c6 <__vsprintf.constprop.0+0x32>
800007de:	0089a783          	lw	a5,8(s3)
800007e2:	854e                	mv	a0,s3
800007e4:	4581                	li	a1,0
800007e6:	9782                	jalr	a5
800007e8:	40b6                	lw	ra,76(sp)
800007ea:	4426                	lw	s0,72(sp)
800007ec:	0049a503          	lw	a0,4(s3)
800007f0:	4496                	lw	s1,68(sp)
800007f2:	4906                	lw	s2,64(sp)
800007f4:	59f2                	lw	s3,60(sp)
800007f6:	5a62                	lw	s4,56(sp)
800007f8:	5ad2                	lw	s5,52(sp)
800007fa:	5b42                	lw	s6,48(sp)
800007fc:	5bb2                	lw	s7,44(sp)
800007fe:	6161                	add	sp,sp,80
80000800:	8082                	ret
80000802:	00144783          	lbu	a5,1(s0)
80000806:	07478063          	beq	a5,s4,80000866 <__vsprintf.constprop.0+0xd2>
8000080a:	ca02                	sw	zero,20(sp)
8000080c:	cc02                	sw	zero,24(sp)
8000080e:	00011e23          	sh	zero,28(sp)
80000812:	84da                	mv	s1,s6
80000814:	844a                	mv	s0,s2
80000816:	a801                	j	80000826 <__vsprintf.constprop.0+0x92>
80000818:	00044783          	lbu	a5,0(s0)
8000081c:	cb89                	beqz	a5,8000082e <__vsprintf.constprop.0+0x9a>
8000081e:	00f48023          	sb	a5,0(s1)
80000822:	0405                	add	s0,s0,1
80000824:	0485                	add	s1,s1,1
80000826:	00044503          	lbu	a0,0(s0)
8000082a:	2c19                	jal	80000a40 <isalpha>
8000082c:	d575                	beqz	a0,80000818 <__vsprintf.constprop.0+0x84>
8000082e:	00000497          	auipc	s1,0x0
80000832:	40248493          	add	s1,s1,1026 # 80000c30 <fmtTable>
80000836:	4901                	li	s2,0
80000838:	a029                	j	80000842 <__vsprintf.constprop.0+0xae>
8000083a:	0905                	add	s2,s2,1
8000083c:	04d1                	add	s1,s1,20
8000083e:	f9590de3          	beq	s2,s5,800007d8 <__vsprintf.constprop.0+0x44>
80000842:	44d0                	lw	a2,12(s1)
80000844:	85a6                	mv	a1,s1
80000846:	8522                	mv	a0,s0
80000848:	2cd9                	jal	80000b1e <strncmp>
8000084a:	f965                	bnez	a0,8000083a <__vsprintf.constprop.0+0xa6>
8000084c:	00291493          	sll	s1,s2,0x2
80000850:	94ca                	add	s1,s1,s2
80000852:	048a                	sll	s1,s1,0x2
80000854:	94de                	add	s1,s1,s7
80000856:	489c                	lw	a5,16(s1)
80000858:	865a                	mv	a2,s6
8000085a:	006c                	add	a1,sp,12
8000085c:	854e                	mv	a0,s3
8000085e:	9782                	jalr	a5
80000860:	44dc                	lw	a5,12(s1)
80000862:	943e                	add	s0,s0,a5
80000864:	bf95                	j	800007d8 <__vsprintf.constprop.0+0x44>
80000866:	0089a783          	lw	a5,8(s3)
8000086a:	02500593          	li	a1,37
8000086e:	854e                	mv	a0,s3
80000870:	9782                	jalr	a5
80000872:	b795                	j	800007d6 <__vsprintf.constprop.0+0x42>

80000874 <__fmt_hex.constprop.0>:
80000874:	419c                	lw	a5,0(a1)
80000876:	7179                	add	sp,sp,-48
80000878:	d226                	sw	s1,36(sp)
8000087a:	0007a803          	lw	a6,0(a5)
8000087e:	cc52                	sw	s4,24(sp)
80000880:	d606                	sw	ra,44(sp)
80000882:	d422                	sw	s0,40(sp)
80000884:	d04a                	sw	s2,32(sp)
80000886:	ce4e                	sw	s3,28(sp)
80000888:	0791                	add	a5,a5,4
8000088a:	c19c                	sw	a5,0(a1)
8000088c:	c202                	sw	zero,4(sp)
8000088e:	c402                	sw	zero,8(sp)
80000890:	00010623          	sb	zero,12(sp)
80000894:	84aa                	mv	s1,a0
80000896:	8a3a                	mv	s4,a4
80000898:	04081763          	bnez	a6,800008e6 <__fmt_hex.constprop.0+0x72>
8000089c:	03000793          	li	a5,48
800008a0:	fff68913          	add	s2,a3,-1
800008a4:	00f10223          	sb	a5,4(sp)
800008a8:	00510413          	add	s0,sp,5
800008ac:	00410993          	add	s3,sp,4
800008b0:	01205b63          	blez	s2,800008c6 <__fmt_hex.constprop.0+0x52>
800008b4:	449c                	lw	a5,8(s1)
800008b6:	197d                	add	s2,s2,-1
800008b8:	85d2                	mv	a1,s4
800008ba:	8526                	mv	a0,s1
800008bc:	9782                	jalr	a5
800008be:	fe091be3          	bnez	s2,800008b4 <__fmt_hex.constprop.0+0x40>
800008c2:	0089fa63          	bgeu	s3,s0,800008d6 <__fmt_hex.constprop.0+0x62>
800008c6:	fff44583          	lbu	a1,-1(s0)
800008ca:	449c                	lw	a5,8(s1)
800008cc:	147d                	add	s0,s0,-1
800008ce:	8526                	mv	a0,s1
800008d0:	9782                	jalr	a5
800008d2:	ff341ae3          	bne	s0,s3,800008c6 <__fmt_hex.constprop.0+0x52>
800008d6:	50b2                	lw	ra,44(sp)
800008d8:	5422                	lw	s0,40(sp)
800008da:	5492                	lw	s1,36(sp)
800008dc:	5902                	lw	s2,32(sp)
800008de:	49f2                	lw	s3,28(sp)
800008e0:	4a62                	lw	s4,24(sp)
800008e2:	6145                	add	sp,sp,48
800008e4:	8082                	ret
800008e6:	00410993          	add	s3,sp,4
800008ea:	844e                	mv	s0,s3
800008ec:	4525                	li	a0,9
800008ee:	1659                	add	a2,a2,-10
800008f0:	00f87793          	and	a5,a6,15
800008f4:	873e                	mv	a4,a5
800008f6:	00c785b3          	add	a1,a5,a2
800008fa:	00485813          	srl	a6,a6,0x4
800008fe:	03078793          	add	a5,a5,48
80000902:	0405                	add	s0,s0,1
80000904:	00e57463          	bgeu	a0,a4,8000090c <__fmt_hex.constprop.0+0x98>
80000908:	0ff5f793          	zext.b	a5,a1
8000090c:	fef40fa3          	sb	a5,-1(s0)
80000910:	fe0810e3          	bnez	a6,800008f0 <__fmt_hex.constprop.0+0x7c>
80000914:	96ce                	add	a3,a3,s3
80000916:	40868933          	sub	s2,a3,s0
8000091a:	fb2054e3          	blez	s2,800008c2 <__fmt_hex.constprop.0+0x4e>
8000091e:	449c                	lw	a5,8(s1)
80000920:	197d                	add	s2,s2,-1
80000922:	85d2                	mv	a1,s4
80000924:	8526                	mv	a0,s1
80000926:	9782                	jalr	a5
80000928:	f80916e3          	bnez	s2,800008b4 <__fmt_hex.constprop.0+0x40>
8000092c:	bf59                	j	800008c2 <__fmt_hex.constprop.0+0x4e>

8000092e <__fmt_p>:
8000092e:	451c                	lw	a5,8(a0)
80000930:	1141                	add	sp,sp,-16
80000932:	c606                	sw	ra,12(sp)
80000934:	c422                	sw	s0,8(sp)
80000936:	c226                	sw	s1,4(sp)
80000938:	84ae                	mv	s1,a1
8000093a:	03000593          	li	a1,48
8000093e:	842a                	mv	s0,a0
80000940:	9782                	jalr	a5
80000942:	441c                	lw	a5,8(s0)
80000944:	8522                	mv	a0,s0
80000946:	07800593          	li	a1,120
8000094a:	9782                	jalr	a5
8000094c:	8522                	mv	a0,s0
8000094e:	4422                	lw	s0,8(sp)
80000950:	40b2                	lw	ra,12(sp)
80000952:	85a6                	mv	a1,s1
80000954:	4492                	lw	s1,4(sp)
80000956:	03000713          	li	a4,48
8000095a:	46a1                	li	a3,8
8000095c:	06100613          	li	a2,97
80000960:	0141                	add	sp,sp,16
80000962:	bf09                	j	80000874 <__fmt_hex.constprop.0>

80000964 <__fmt_X>:
80000964:	4701                	li	a4,0
80000966:	56fd                	li	a3,-1
80000968:	04100613          	li	a2,65
8000096c:	b721                	j	80000874 <__fmt_hex.constprop.0>

8000096e <__fmt_x>:
8000096e:	4701                	li	a4,0
80000970:	56fd                	li	a3,-1
80000972:	06100613          	li	a2,97
80000976:	bdfd                	j	80000874 <__fmt_hex.constprop.0>

80000978 <printf>:
80000978:	7139                	add	sp,sp,-64
8000097a:	02410313          	add	t1,sp,36
8000097e:	d22e                	sw	a1,36(sp)
80000980:	d432                	sw	a2,40(sp)
80000982:	da3e                	sw	a5,52(sp)
80000984:	85aa                	mv	a1,a0
80000986:	00000797          	auipc	a5,0x0
8000098a:	e0a78793          	add	a5,a5,-502 # 80000790 <write_buffer_putch>
8000098e:	0048                	add	a0,sp,4
80000990:	861a                	mv	a2,t1
80000992:	ce06                	sw	ra,28(sp)
80000994:	d636                	sw	a3,44(sp)
80000996:	d83a                	sw	a4,48(sp)
80000998:	dc42                	sw	a6,56(sp)
8000099a:	de46                	sw	a7,60(sp)
8000099c:	c01a                	sw	t1,0(sp)
8000099e:	c202                	sw	zero,4(sp)
800009a0:	c402                	sw	zero,8(sp)
800009a2:	c63e                	sw	a5,12(sp)
800009a4:	3bc5                	jal	80000794 <__vsprintf.constprop.0>
800009a6:	40f2                	lw	ra,28(sp)
800009a8:	6121                	add	sp,sp,64
800009aa:	8082                	ret

800009ac <vsprintf>:
800009ac:	1101                	add	sp,sp,-32
800009ae:	87aa                	mv	a5,a0
800009b0:	c23e                	sw	a5,4(sp)
800009b2:	0048                	add	a0,sp,4
800009b4:	fffff797          	auipc	a5,0xfffff
800009b8:	73278793          	add	a5,a5,1842 # 800000e6 <write_buffer_out>
800009bc:	ce06                	sw	ra,28(sp)
800009be:	c402                	sw	zero,8(sp)
800009c0:	c63e                	sw	a5,12(sp)
800009c2:	3bc9                	jal	80000794 <__vsprintf.constprop.0>
800009c4:	40f2                	lw	ra,28(sp)
800009c6:	6105                	add	sp,sp,32
800009c8:	8082                	ret

800009ca <sprintf>:
800009ca:	7139                	add	sp,sp,-64
800009cc:	02810313          	add	t1,sp,40
800009d0:	8e2a                	mv	t3,a0
800009d2:	d432                	sw	a2,40(sp)
800009d4:	da3e                	sw	a5,52(sp)
800009d6:	0048                	add	a0,sp,4
800009d8:	fffff797          	auipc	a5,0xfffff
800009dc:	70e78793          	add	a5,a5,1806 # 800000e6 <write_buffer_out>
800009e0:	861a                	mv	a2,t1
800009e2:	ce06                	sw	ra,28(sp)
800009e4:	d636                	sw	a3,44(sp)
800009e6:	d83a                	sw	a4,48(sp)
800009e8:	dc42                	sw	a6,56(sp)
800009ea:	de46                	sw	a7,60(sp)
800009ec:	c01a                	sw	t1,0(sp)
800009ee:	c272                	sw	t3,4(sp)
800009f0:	c402                	sw	zero,8(sp)
800009f2:	c63e                	sw	a5,12(sp)
800009f4:	3345                	jal	80000794 <__vsprintf.constprop.0>
800009f6:	40f2                	lw	ra,28(sp)
800009f8:	6121                	add	sp,sp,64
800009fa:	8082                	ret

800009fc <snprintf>:
800009fc:	7179                	add	sp,sp,-48
800009fe:	d23e                	sw	a5,36(sp)
80000a00:	087c                	add	a5,sp,28
80000a02:	ce36                	sw	a3,28(sp)
80000a04:	d03a                	sw	a4,32(sp)
80000a06:	d442                	sw	a6,40(sp)
80000a08:	d646                	sw	a7,44(sp)
80000a0a:	c63e                	sw	a5,12(sp)
80000a0c:	4501                	li	a0,0
80000a0e:	6145                	add	sp,sp,48
80000a10:	8082                	ret

80000a12 <vsnprintf>:
80000a12:	4501                	li	a0,0
80000a14:	8082                	ret

80000a16 <puts>:
80000a16:	1141                	add	sp,sp,-16
80000a18:	c422                	sw	s0,8(sp)
80000a1a:	c606                	sw	ra,12(sp)
80000a1c:	842a                	mv	s0,a0
80000a1e:	00054503          	lbu	a0,0(a0)
80000a22:	c519                	beqz	a0,80000a30 <puts+0x1a>
80000a24:	0405                	add	s0,s0,1
80000a26:	e7aff0ef          	jal	800000a0 <putchar>
80000a2a:	00044503          	lbu	a0,0(s0)
80000a2e:	f97d                	bnez	a0,80000a24 <puts+0xe>
80000a30:	4529                	li	a0,10
80000a32:	e6eff0ef          	jal	800000a0 <putchar>
80000a36:	40b2                	lw	ra,12(sp)
80000a38:	4422                	lw	s0,8(sp)
80000a3a:	4501                	li	a0,0
80000a3c:	0141                	add	sp,sp,16
80000a3e:	8082                	ret

80000a40 <isalpha>:
80000a40:	fdf57513          	and	a0,a0,-33
80000a44:	fbf50513          	add	a0,a0,-65
80000a48:	01a53513          	sltiu	a0,a0,26
80000a4c:	8082                	ret

80000a4e <isdigit>:
80000a4e:	fd050513          	add	a0,a0,-48
80000a52:	00a53513          	sltiu	a0,a0,10
80000a56:	8082                	ret

80000a58 <strlen>:
80000a58:	00054783          	lbu	a5,0(a0)
80000a5c:	872a                	mv	a4,a0
80000a5e:	4501                	li	a0,0
80000a60:	cb81                	beqz	a5,80000a70 <strlen+0x18>
80000a62:	0505                	add	a0,a0,1
80000a64:	00a707b3          	add	a5,a4,a0
80000a68:	0007c783          	lbu	a5,0(a5)
80000a6c:	fbfd                	bnez	a5,80000a62 <strlen+0xa>
80000a6e:	8082                	ret
80000a70:	8082                	ret

80000a72 <strcpy>:
80000a72:	0005c783          	lbu	a5,0(a1)
80000a76:	872a                	mv	a4,a0
80000a78:	cb81                	beqz	a5,80000a88 <strcpy+0x16>
80000a7a:	00f70023          	sb	a5,0(a4)
80000a7e:	0015c783          	lbu	a5,1(a1)
80000a82:	0585                	add	a1,a1,1
80000a84:	0705                	add	a4,a4,1
80000a86:	fbf5                	bnez	a5,80000a7a <strcpy+0x8>
80000a88:	00070023          	sb	zero,0(a4)
80000a8c:	8082                	ret

80000a8e <strncpy>:
80000a8e:	4781                	li	a5,0
80000a90:	e619                	bnez	a2,80000a9e <strncpy+0x10>
80000a92:	a03d                	j	80000ac0 <strncpy+0x32>
80000a94:	00e68023          	sb	a4,0(a3)
80000a98:	0785                	add	a5,a5,1
80000a9a:	02f60263          	beq	a2,a5,80000abe <strncpy+0x30>
80000a9e:	00f58733          	add	a4,a1,a5
80000aa2:	00074703          	lbu	a4,0(a4)
80000aa6:	00f506b3          	add	a3,a0,a5
80000aaa:	f76d                	bnez	a4,80000a94 <strncpy+0x6>
80000aac:	00c7f963          	bgeu	a5,a2,80000abe <strncpy+0x30>
80000ab0:	87b6                	mv	a5,a3
80000ab2:	962a                	add	a2,a2,a0
80000ab4:	00078023          	sb	zero,0(a5)
80000ab8:	0785                	add	a5,a5,1
80000aba:	fef61de3          	bne	a2,a5,80000ab4 <strncpy+0x26>
80000abe:	8082                	ret
80000ac0:	8082                	ret

80000ac2 <strcat>:
80000ac2:	00054783          	lbu	a5,0(a0)
80000ac6:	c39d                	beqz	a5,80000aec <strcat+0x2a>
80000ac8:	87aa                	mv	a5,a0
80000aca:	0017c703          	lbu	a4,1(a5)
80000ace:	0785                	add	a5,a5,1
80000ad0:	ff6d                	bnez	a4,80000aca <strcat+0x8>
80000ad2:	0005c703          	lbu	a4,0(a1)
80000ad6:	cb01                	beqz	a4,80000ae6 <strcat+0x24>
80000ad8:	00e78023          	sb	a4,0(a5)
80000adc:	0015c703          	lbu	a4,1(a1)
80000ae0:	0785                	add	a5,a5,1
80000ae2:	0585                	add	a1,a1,1
80000ae4:	fb75                	bnez	a4,80000ad8 <strcat+0x16>
80000ae6:	00078023          	sb	zero,0(a5)
80000aea:	8082                	ret
80000aec:	87aa                	mv	a5,a0
80000aee:	b7d5                	j	80000ad2 <strcat+0x10>

80000af0 <strcmp>:
80000af0:	a801                	j	80000b00 <strcmp+0x10>
80000af2:	0005c703          	lbu	a4,0(a1)
80000af6:	0505                	add	a0,a0,1
80000af8:	0585                	add	a1,a1,1
80000afa:	cf09                	beqz	a4,80000b14 <strcmp+0x24>
80000afc:	00f71e63          	bne	a4,a5,80000b18 <strcmp+0x28>
80000b00:	00054783          	lbu	a5,0(a0)
80000b04:	f7fd                	bnez	a5,80000af2 <strcmp+0x2>
80000b06:	0005c783          	lbu	a5,0(a1)
80000b0a:	00f037b3          	snez	a5,a5
80000b0e:	40f00533          	neg	a0,a5
80000b12:	8082                	ret
80000b14:	4505                	li	a0,1
80000b16:	8082                	ret
80000b18:	40e78533          	sub	a0,a5,a4
80000b1c:	8082                	ret

80000b1e <strncmp>:
80000b1e:	4701                	li	a4,0
80000b20:	ee01                	bnez	a2,80000b38 <strncmp+0x1a>
80000b22:	a81d                	j	80000b58 <strncmp+0x3a>
80000b24:	0005c683          	lbu	a3,0(a1)
80000b28:	ca99                	beqz	a3,80000b3e <strncmp+0x20>
80000b2a:	0705                	add	a4,a4,1
80000b2c:	02d79863          	bne	a5,a3,80000b5c <strncmp+0x3e>
80000b30:	0505                	add	a0,a0,1
80000b32:	0585                	add	a1,a1,1
80000b34:	02e60263          	beq	a2,a4,80000b58 <strncmp+0x3a>
80000b38:	00054783          	lbu	a5,0(a0)
80000b3c:	f7e5                	bnez	a5,80000b24 <strncmp+0x6>
80000b3e:	00e60d63          	beq	a2,a4,80000b58 <strncmp+0x3a>
80000b42:	00054783          	lbu	a5,0(a0)
80000b46:	4505                	li	a0,1
80000b48:	eb89                	bnez	a5,80000b5a <strncmp+0x3c>
80000b4a:	0005c783          	lbu	a5,0(a1)
80000b4e:	00f037b3          	snez	a5,a5
80000b52:	40f00533          	neg	a0,a5
80000b56:	8082                	ret
80000b58:	4501                	li	a0,0
80000b5a:	8082                	ret
80000b5c:	40d78533          	sub	a0,a5,a3
80000b60:	8082                	ret

80000b62 <memset>:
80000b62:	0ff5f593          	zext.b	a1,a1
80000b66:	00c50733          	add	a4,a0,a2
80000b6a:	87aa                	mv	a5,a0
80000b6c:	c611                	beqz	a2,80000b78 <memset+0x16>
80000b6e:	00b78023          	sb	a1,0(a5)
80000b72:	0785                	add	a5,a5,1
80000b74:	fee79de3          	bne	a5,a4,80000b6e <memset+0xc>
80000b78:	8082                	ret

80000b7a <memmove>:
80000b7a:	1141                	add	sp,sp,-16
80000b7c:	c622                	sw	s0,12(sp)
80000b7e:	00f60793          	add	a5,a2,15
80000b82:	0800                	add	s0,sp,16
80000b84:	9bc1                	and	a5,a5,-16
80000b86:	40f10133          	sub	sp,sp,a5
80000b8a:	c60d                	beqz	a2,80000bb4 <memmove+0x3a>
80000b8c:	878a                	mv	a5,sp
80000b8e:	960a                	add	a2,a2,sp
80000b90:	870a                	mv	a4,sp
80000b92:	0005c683          	lbu	a3,0(a1)
80000b96:	0705                	add	a4,a4,1
80000b98:	0585                	add	a1,a1,1
80000b9a:	fed70fa3          	sb	a3,-1(a4)
80000b9e:	fec71ae3          	bne	a4,a2,80000b92 <memmove+0x18>
80000ba2:	872a                	mv	a4,a0
80000ba4:	0007c683          	lbu	a3,0(a5)
80000ba8:	0785                	add	a5,a5,1
80000baa:	0705                	add	a4,a4,1
80000bac:	fed70fa3          	sb	a3,-1(a4)
80000bb0:	fec79ae3          	bne	a5,a2,80000ba4 <memmove+0x2a>
80000bb4:	ff040113          	add	sp,s0,-16
80000bb8:	4432                	lw	s0,12(sp)
80000bba:	0141                	add	sp,sp,16
80000bbc:	8082                	ret

80000bbe <memcpy>:
80000bbe:	ca19                	beqz	a2,80000bd4 <memcpy+0x16>
80000bc0:	962a                	add	a2,a2,a0
80000bc2:	87aa                	mv	a5,a0
80000bc4:	0005c703          	lbu	a4,0(a1)
80000bc8:	0785                	add	a5,a5,1
80000bca:	0585                	add	a1,a1,1
80000bcc:	fee78fa3          	sb	a4,-1(a5)
80000bd0:	fec79ae3          	bne	a5,a2,80000bc4 <memcpy+0x6>
80000bd4:	8082                	ret

80000bd6 <memcmp>:
80000bd6:	c205                	beqz	a2,80000bf6 <memcmp+0x20>
80000bd8:	962a                	add	a2,a2,a0
80000bda:	a019                	j	80000be0 <memcmp+0xa>
80000bdc:	00c50d63          	beq	a0,a2,80000bf6 <memcmp+0x20>
80000be0:	00054783          	lbu	a5,0(a0)
80000be4:	0005c703          	lbu	a4,0(a1)
80000be8:	0505                	add	a0,a0,1
80000bea:	0585                	add	a1,a1,1
80000bec:	fee788e3          	beq	a5,a4,80000bdc <memcmp+0x6>
80000bf0:	40e78533          	sub	a0,a5,a4
80000bf4:	8082                	ret
80000bf6:	4501                	li	a0,0
80000bf8:	8082                	ret
